; ModuleID = '54/862.c'
source_filename = "54/862.c"
target datalayout = "e-m:e-p270:32:32-p271:32:32-p272:64:64-i64:64-f80:128-n8:16:32:64-S128"
target triple = "x86_64-pc-linux-gnu"

@.str = private unnamed_addr constant [6 x i8] c"%d %d\00", align 1
@.str.1 = private unnamed_addr constant [3 x i8] c"%d\00", align 1

; Function Attrs: noinline nounwind uwtable
define dso_local void @main() #0 {
  %1 = alloca i32, align 4
  %2 = alloca i32, align 4
  %3 = alloca i32, align 4
  %4 = alloca i32, align 4
  %5 = alloca i32, align 4
  store i32 1, i32* %4, align 4
  %6 = call i32 (i8*, ...) @__isoc99_scanf(i8* getelementptr inbounds ([6 x i8], [6 x i8]* @.str, i64 0, i64 0), i32* %1, i32* %2)
  br label %7

7:                                                ; preds = %58, %0
  %8 = load i32, i32* %4, align 4
  %9 = icmp sge i32 %8, 0
  br i1 %9, label %10, label %59

10:                                               ; preds = %7
  %11 = load i32, i32* %1, align 4
  %12 = load i32, i32* %4, align 4
  %13 = mul nsw i32 %11, %12
  %14 = load i32, i32* %2, align 4
  %15 = add nsw i32 %13, %14
  store i32 %15, i32* %3, align 4
  store i32 2, i32* %5, align 4
  br label %16

16:                                               ; preds = %44, %10
  %17 = load i32, i32* %5, align 4
  %18 = load i32, i32* %1, align 4
  %19 = add nsw i32 %18, 1
  %20 = icmp sle i32 %17, %19
  br i1 %20, label %21, label %47

21:                                               ; preds = %16
  %22 = load i32, i32* %5, align 4
  %23 = load i32, i32* %1, align 4
  %24 = add nsw i32 %23, 1
  %25 = icmp eq i32 %22, %24
  br i1 %25, label %26, label %27

26:                                               ; preds = %21
  br label %47

27:                                               ; preds = %21
  %28 = load i32, i32* %3, align 4
  %29 = load i32, i32* %1, align 4
  %30 = sub nsw i32 %29, 1
  %31 = srem i32 %28, %30
  %32 = icmp ne i32 %31, 0
  br i1 %32, label %33, label %34

33:                                               ; preds = %27
  br label %47

34:                                               ; preds = %27
  %35 = load i32, i32* %3, align 4
  %36 = load i32, i32* %1, align 4
  %37 = mul nsw i32 %35, %36
  %38 = load i32, i32* %1, align 4
  %39 = sub nsw i32 %38, 1
  %40 = sdiv i32 %37, %39
  %41 = load i32, i32* %2, align 4
  %42 = add nsw i32 %40, %41
  store i32 %42, i32* %3, align 4
  br label %43

43:                                               ; preds = %34
  br label %44

44:                                               ; preds = %43
  %45 = load i32, i32* %5, align 4
  %46 = add nsw i32 %45, 1
  store i32 %46, i32* %5, align 4
  br label %16

47:                                               ; preds = %33, %26, %16
  %48 = load i32, i32* %5, align 4
  %49 = load i32, i32* %1, align 4
  %50 = add nsw i32 %49, 1
  %51 = icmp eq i32 %48, %50
  br i1 %51, label %52, label %55

52:                                               ; preds = %47
  %53 = load i32, i32* %3, align 4
  %54 = call i32 (i8*, ...) @printf(i8* getelementptr inbounds ([3 x i8], [3 x i8]* @.str.1, i64 0, i64 0), i32 %53)
  br label %59

55:                                               ; preds = %47
  %56 = load i32, i32* %4, align 4
  %57 = add nsw i32 %56, 1
  store i32 %57, i32* %4, align 4
  br label %58

58:                                               ; preds = %55
  br label %7

59:                                               ; preds = %52, %7
  ret void
}

declare dso_local i32 @__isoc99_scanf(i8*, ...) #1

declare dso_local i32 @printf(i8*, ...) #1


!llvm.module.flags = !{!0}
!llvm.ident = !{!1}

!0 = !{i32 1, !"wchar_size", i32 4}
!1 = !{!"clang version 10.0.0-4ubuntu1 "}
